target datalayout = "e-m:e-p270:32:32-p271:32:32-p272:64:64-i64:64-i128:128-f80:128-n8:16:32:64-S128"
target triple = "x86_64-pc-linux-gnu"

%"class.toku::locktree_manager" = type { i64, i64, %"struct.toku::lt_counters", ptr, ptr, ptr, ptr, %"class.toku::omt", %"class.std::shared_ptr", %struct.toku_mutex_t, %struct.toku_mutex_t, i64, i64, i64, i64, i64, i64, i64, %"class.toku::locktree_manager::locktree_escalator" }
%"struct.toku::lt_counters" = type { i64, i64, i64, i64, i64 }
%"class.toku::omt" = type { i8, i32, %union.anon }
%union.anon = type { %"struct.toku::omt<toku::locktree *>::omt_array" }
%"struct.toku::omt<toku::locktree *>::omt_array" = type { i32, i32, ptr }
%"class.std::shared_ptr" = type { %"class.std::__shared_ptr" }
%"class.std::__shared_ptr" = type { ptr, %"class.std::__shared_count" }
%"class.std::__shared_count" = type { ptr }
%struct.toku_mutex_t = type { %union.pthread_mutex_t, ptr }
%union.pthread_mutex_t = type { %struct.__pthread_mutex_s }
%struct.__pthread_mutex_s = type { i32, i32, i32, i32, i32, i16, i16, %struct.__pthread_internal_list }
%struct.__pthread_internal_list = type { ptr, ptr }
%"class.toku::locktree_manager::locktree_escalator" = type <{ %struct.toku_mutex_t, %struct.toku_cond_t, i8, [7 x i8] }>
%struct.toku_cond_t = type { %union.pthread_cond_t, ptr }
%union.pthread_cond_t = type { %struct.__pthread_cond_s }
%struct.__pthread_cond_s = type { %union.__atomic_wide_counter, %union.__atomic_wide_counter, [2 x i32], [2 x i32], i32, i32, [2 x i32] }
%union.__atomic_wide_counter = type { i64 }

; Function Attrs: mustprogress nounwind uwtable
define noundef zeroext i1 @_ZNK4toku16locktree_manager12out_of_locksEv(ptr noundef nonnull align 8 dereferenceable(392) %0) #1 align 2 {
  %2 = alloca ptr, align 8
  store ptr %0, ptr %2, align 8, !tbaa !4
  %3 = load ptr, ptr %2, align 8
  %4 = getelementptr inbounds nuw %"class.toku::locktree_manager", ptr %3, i32 0, i32 1
  %5 = load i64, ptr %4, align 8, !tbaa !29
  %6 = getelementptr inbounds nuw %"class.toku::locktree_manager", ptr %3, i32 0, i32 0
  %7 = load i64, ptr %6, align 8, !tbaa !12
  %8 = icmp uge i64 %5, %7
  ret i1 %8
}

; Function Attrs: mustprogress uwtable
define void @_ZN4toku16locktree_manager14run_escalationEv(ptr noundef nonnull align 8 dereferenceable(392) %0) #0 align 2 {
  %2 = alloca ptr, align 8
  store ptr %0, ptr %2, align 8, !tbaa !4
  %3 = load ptr, ptr %2, align 8
  %4 = getelementptr inbounds nuw %"class.toku::locktree_manager", ptr %3, i32 0, i32 18
  call void @_ZN4toku16locktree_manager18locktree_escalator3runEPS0_PFvPvES3_(ptr noundef nonnull align 8 dereferenceable(105) %4, ptr noundef %3, ptr noundef @_ZZN4toku16locktree_manager14run_escalationEvEN13escalation_fn3runEPv, ptr noundef %3)
  ret void
}

; Function Attrs: mustprogress nounwind uwtable
define noundef zeroext i1 @_ZN4toku16locktree_manager18over_big_thresholdEv(ptr noundef nonnull align 8 dereferenceable(392) %0) #1 align 2 {
  %2 = alloca ptr, align 8
  store ptr %0, ptr %2, align 8, !tbaa !4
  %3 = load ptr, ptr %2, align 8
  %4 = getelementptr inbounds nuw %"class.toku::locktree_manager", ptr %3, i32 0, i32 1
  %5 = load i64, ptr %4, align 8, !tbaa !29
  %6 = getelementptr inbounds nuw %"class.toku::locktree_manager", ptr %3, i32 0, i32 0
  %7 = load i64, ptr %6, align 8, !tbaa !12
  %8 = udiv i64 %7, 2
  %9 = icmp uge i64 %5, %8
  ret i1 %9
}

; Function Attrs: mustprogress uwtable
define noundef i32 @_ZN4toku16locktree_manager30check_current_lock_constraintsEb(ptr noundef nonnull align 8 dereferenceable(392) %0, i1 noundef zeroext %1) #0 align 2 {
  %3 = alloca ptr, align 8
  %4 = alloca i8, align 1
  %5 = alloca i32, align 4
  store ptr %0, ptr %3, align 8, !tbaa !4
  %6 = zext i1 %1 to i8
  store i8 %6, ptr %4, align 1, !tbaa !75
  %7 = load ptr, ptr %3, align 8
  call void @llvm.lifetime.start.p0(i64 4, ptr %5) #17
  store i32 0, ptr %5, align 4, !tbaa !40
  %8 = load i8, ptr %4, align 1, !tbaa !75, !range !49, !noundef !50
  %9 = trunc i8 %8 to i1
  br i1 %9, label %10, label %16

10:                                               ; preds = %2
  %11 = call noundef zeroext i1 @_ZN4toku16locktree_manager18over_big_thresholdEv(ptr noundef nonnull align 8 dereferenceable(392) %7)
  br i1 %11, label %12, label %16

12:                                               ; preds = %10
  call void @_ZN4toku16locktree_manager14run_escalationEv(ptr noundef nonnull align 8 dereferenceable(392) %7)
  %13 = call noundef zeroext i1 @_ZN4toku16locktree_manager18over_big_thresholdEv(ptr noundef nonnull align 8 dereferenceable(392) %7)
  br i1 %13, label %14, label %15

14:                                               ; preds = %12
  store i32 -100000, ptr %5, align 4, !tbaa !40
  br label %15

15:                                               ; preds = %14, %12
  br label %16

16:                                               ; preds = %15, %10, %2
  %17 = load i32, ptr %5, align 4, !tbaa !40
  %18 = icmp eq i32 %17, 0
  br i1 %18, label %19, label %25

19:                                               ; preds = %16
  %20 = call noundef zeroext i1 @_ZNK4toku16locktree_manager12out_of_locksEv(ptr noundef nonnull align 8 dereferenceable(392) %7)
  br i1 %20, label %21, label %25

21:                                               ; preds = %19
  call void @_ZN4toku16locktree_manager14run_escalationEv(ptr noundef nonnull align 8 dereferenceable(392) %7)
  %22 = call noundef zeroext i1 @_ZNK4toku16locktree_manager12out_of_locksEv(ptr noundef nonnull align 8 dereferenceable(392) %7)
  br i1 %22, label %23, label %24

23:                                               ; preds = %21
  store i32 -100000, ptr %5, align 4, !tbaa !40
  br label %24

24:                                               ; preds = %23, %21
  br label %25

25:                                               ; preds = %24, %19, %16
  %26 = load i32, ptr %5, align 4, !tbaa !40
  call void @llvm.lifetime.end.p0(i64 4, ptr %5) #17
  ret i32 %26
}