; Function Attrs: mustprogress uwtable
define noundef range(i32 -100000, 1) i32 @_ZN4toku16locktree_manager30check_current_lock_constraintsEb(ptr noundef nonnull align 8 dereferenceable(392) %0, i1 noundef zeroext %1) local_unnamed_addr #0 align 2 {
  %3 = getelementptr inbounds nuw i8, ptr %0, i64 8
  %4 = load i64, ptr %3, align 8, !tbaa !34
  %5 = load i64, ptr %0, align 8, !tbaa !22
  %6 = lshr i64 %5, 1
  %.not = icmp uge i64 %4, %6
  %or.cond.not = select i1 %1, i1 %.not, i1 false
  br i1 %or.cond.not, label %7, label %.thread

7:                                                ; preds = %2
  %8 = getelementptr inbounds nuw i8, ptr %0, i64 280
  tail call void @_ZN4toku16locktree_manager18locktree_escalator3runEPS0_PFvPvES3_(ptr noundef nonnull align 8 dereferenceable(105) %8, ptr noundef nonnull align 8 dereferenceable(392) %0, ptr noundef nonnull @_ZZN4toku16locktree_manager14run_escalationEvEN13escalation_fn3runEPv, ptr noundef nonnull align 8 dereferenceable(392) %0)
  %9 = load i64, ptr %3, align 8, !tbaa !34
  %10 = load i64, ptr %0, align 8, !tbaa !22
  %11 = lshr i64 %10, 1
  %.not6 = icmp ult i64 %9, %11
  br i1 %.not6, label %.thread, label %19

.thread:                                          ; preds = %2, %7
  %12 = phi i64 [ %10, %7 ], [ %5, %2 ]
  %13 = phi i64 [ %9, %7 ], [ %4, %2 ]
  %.not7 = icmp ult i64 %13, %12
  br i1 %.not7, label %19, label %14

14:                                               ; preds = %.thread
  %15 = getelementptr inbounds nuw i8, ptr %0, i64 8
  %16 = getelementptr inbounds nuw i8, ptr %0, i64 280
  tail call void @_ZN4toku16locktree_manager18locktree_escalator3runEPS0_PFvPvES3_(ptr noundef nonnull align 8 dereferenceable(105) %16, ptr noundef nonnull align 8 dereferenceable(392) %0, ptr noundef nonnull @_ZZN4toku16locktree_manager14run_escalationEvEN13escalation_fn3runEPv, ptr noundef nonnull align 8 dereferenceable(392) %0)
  %17 = load i64, ptr %15, align 8, !tbaa !34
  %18 = load i64, ptr %0, align 8, !tbaa !22
  %.not8 = icmp ult i64 %17, %18
  %spec.select4 = select i1 %.not8, i32 0, i32 -100000
  br label %19

19:                                               ; preds = %14, %.thread, %7
  %.1 = phi i32 [ 0, %.thread ], [ -100000, %7 ], [ %spec.select4, %14 ]
  ret i32 %.1
}